target datalayout = "e-m:e-p270:32:32-p271:32:32-p272:64:64-i64:64-i128:128-f80:128-n8:16:32:64-S128"
target triple = "x86_64-pc-linux-gnu"

%"struct.Luau::NotNull" = type { ptr }
%"struct.Luau::NotNull.5" = type { ptr }
%"struct.Luau::NotNull.6" = type { ptr }
%"struct.Luau::DataFlowGraph" = type { %"struct.Luau::NotNull.5", %"struct.Luau::NotNull.6", %"class.Luau::DenseHashMap", %"class.Luau::DenseHashMap.7", %"class.Luau::DenseHashMap.10", %"class.Luau::DenseHashMap", %"class.Luau::DenseHashMap.13" }
%"class.Luau::DenseHashMap.7" = type { %"class.Luau::detail::DenseHashTable.8" }
%"class.Luau::detail::DenseHashTable.8" = type <{ ptr, i64, i64, ptr, [8 x i8] }>
%"class.Luau::DenseHashMap.10" = type { %"class.Luau::detail::DenseHashTable.11" }
%"class.Luau::detail::DenseHashTable.11" = type <{ ptr, i64, i64, ptr, [8 x i8] }>
%"class.Luau::DenseHashMap" = type { %"class.Luau::detail::DenseHashTable" }
%"class.Luau::detail::DenseHashTable" = type <{ ptr, i64, i64, ptr, [8 x i8] }>
%"class.Luau::DenseHashMap.13" = type { %"class.Luau::detail::DenseHashTable.14" }
%"class.Luau::detail::DenseHashTable.14" = type <{ ptr, i64, i64, ptr, [8 x i8] }>
%"struct.Luau::Symbol" = type { ptr, %"struct.Luau::AstName" }
%"struct.Luau::AstName" = type { ptr }
%"struct.Luau::DataFlowGraphBuilder" = type { %"struct.Luau::DataFlowGraph", %"struct.Luau::NotNull.5", %"struct.Luau::NotNull.6", ptr, %"class.std::vector.43", %"class.std::vector.48", %"class.Luau::DenseHashMap.53" }
%"class.std::vector.43" = type { %"struct.std::_Vector_base.44" }
%"struct.std::_Vector_base.44" = type { %"struct.std::_Vector_base<std::unique_ptr<Luau::DfgScope>, std::allocator<std::unique_ptr<Luau::DfgScope>>>::_Vector_impl" }
%"struct.std::_Vector_base<std::unique_ptr<Luau::DfgScope>, std::allocator<std::unique_ptr<Luau::DfgScope>>>::_Vector_impl" = type { %"struct.std::_Vector_base<std::unique_ptr<Luau::DfgScope>, std::allocator<std::unique_ptr<Luau::DfgScope>>>::_Vector_impl_data" }
%"struct.std::_Vector_base<std::unique_ptr<Luau::DfgScope>, std::allocator<std::unique_ptr<Luau::DfgScope>>>::_Vector_impl_data" = type { ptr, ptr, ptr }
%"class.std::vector.48" = type { %"struct.std::_Vector_base.49" }
%"struct.std::_Vector_base.49" = type { %"struct.std::_Vector_base<Luau::DfgScope *, std::allocator<Luau::DfgScope *>>::_Vector_impl" }
%"struct.std::_Vector_base<Luau::DfgScope *, std::allocator<Luau::DfgScope *>>::_Vector_impl" = type { %"struct.std::_Vector_base<Luau::DfgScope *, std::allocator<Luau::DfgScope *>>::_Vector_impl_data" }
%"struct.std::_Vector_base<Luau::DfgScope *, std::allocator<Luau::DfgScope *>>::_Vector_impl_data" = type { ptr, ptr, ptr }
%"class.Luau::DenseHashMap.53" = type { %"class.Luau::detail::DenseHashTable.54" }
%"class.Luau::detail::DenseHashTable.54" = type <{ ptr, i64, i64, %"struct.Luau::Symbol", [8 x i8] }>
%class.anon.122 = type { ptr, ptr, ptr }

; Function Attrs: mustprogress nounwind uwtable
define linkonce_odr dso_local noundef ptr @_ZNK4Luau7NotNullIKNS_3DefEEcvPS2_Ev(ptr noundef nonnull align 8 dereferenceable(8) %0) #4 comdat align 2 {
  %2 = alloca ptr, align 8
  store ptr %0, ptr %2, align 8, !tbaa !71
  %3 = load ptr, ptr %2, align 8
  %4 = getelementptr inbounds nuw %"struct.Luau::NotNull", ptr %3, i32 0, i32 0
  %5 = load ptr, ptr %4, align 8, !tbaa !73
  ret ptr %5
}

; Function Attrs: mustprogress uwtable
define dso_local void @_ZN4Luau20DataFlowGraphBuilder11visitLValueEPNS_7AstExprENS_7NotNullIKNS_3DefEEE(ptr noundef nonnull align 8 dereferenceable(336) %0, ptr noundef %1, ptr %2) #2 align 2 {
  %4 = alloca %"struct.Luau::NotNull", align 8
  %5 = alloca ptr, align 8
  %6 = alloca ptr, align 8
  %7 = alloca %class.anon.122, align 8
  %8 = alloca %"struct.Luau::NotNull", align 8
  %9 = getelementptr inbounds nuw %"struct.Luau::NotNull", ptr %4, i32 0, i32 0
  store ptr %2, ptr %9, align 8
  store ptr %0, ptr %5, align 8, !tbaa !154
  store ptr %1, ptr %6, align 8, !tbaa !46
  %10 = load ptr, ptr %5, align 8
  call void @llvm.lifetime.start.p0(i64 24, ptr %7) #17
  %11 = getelementptr inbounds nuw %class.anon.122, ptr %7, i32 0, i32 0
  store ptr %6, ptr %11, align 8, !tbaa !54
  %12 = getelementptr inbounds nuw %class.anon.122, ptr %7, i32 0, i32 1
  store ptr %10, ptr %12, align 8, !tbaa !453
  %13 = getelementptr inbounds nuw %class.anon.122, ptr %7, i32 0, i32 2
  store ptr %4, ptr %13, align 8, !tbaa !71
  call void @llvm.lifetime.start.p0(i64 8, ptr %8) #17
  %14 = call ptr @"_ZZN4Luau20DataFlowGraphBuilder11visitLValueEPNS_7AstExprENS_7NotNullIKNS_3DefEEEENK3$_0clEv"(ptr noundef nonnull align 8 dereferenceable(24) %7)
  %15 = getelementptr inbounds nuw %"struct.Luau::NotNull", ptr %8, i32 0, i32 0
  store ptr %14, ptr %15, align 8
  %16 = call noundef ptr @_ZNK4Luau7NotNullIKNS_3DefEEcvPS2_Ev(ptr noundef nonnull align 8 dereferenceable(8) %8) #17
  %17 = getelementptr inbounds nuw %"struct.Luau::DataFlowGraphBuilder", ptr %10, i32 0, i32 0
  %18 = getelementptr inbounds nuw %"struct.Luau::DataFlowGraph", ptr %17, i32 0, i32 2
  %19 = call noundef nonnull align 8 dereferenceable(8) ptr @_ZN4Luau12DenseHashMapIPKNS_7AstExprEPKNS_3DefENS_16DenseHashPointerESt8equal_toIS3_EEixERKS3_(ptr noundef nonnull align 8 dereferenceable(40) %18, ptr noundef nonnull align 8 dereferenceable(8) %6)
  store ptr %16, ptr %19, align 8, !tbaa !23
  call void @llvm.lifetime.end.p0(i64 8, ptr %8) #17
  call void @llvm.lifetime.end.p0(i64 24, ptr %7) #17
  ret void
}