; Function Attrs: mustprogress uwtable
define dso_local void @_ZN4Luau20DataFlowGraphBuilder11visitLValueEPNS_7AstExprENS_7NotNullIKNS_3DefEEE(ptr noundef nonnull align 8 dereferenceable(336) %0, ptr noundef %1, ptr %2) local_unnamed_addr #2 align 2 {
  %4 = alloca %"struct.Luau::NotNull", align 8
  %5 = alloca ptr, align 8
  %6 = alloca %class.anon.122, align 8
  store ptr %2, ptr %4, align 8
  store ptr %1, ptr %5, align 8, !tbaa !53
  call void @llvm.lifetime.start.p0(i64 24, ptr nonnull %6) #26
  store ptr %5, ptr %6, align 8, !tbaa !323
  %7 = getelementptr inbounds nuw i8, ptr %6, i64 8
  store ptr %0, ptr %7, align 8, !tbaa !324
  %8 = getelementptr inbounds nuw i8, ptr %6, i64 16
  store ptr %4, ptr %8, align 8, !tbaa !216
  %9 = call fastcc ptr @"_ZZN4Luau20DataFlowGraphBuilder11visitLValueEPNS_7AstExprENS_7NotNullIKNS_3DefEEEENK3$_0clEv"(ptr noundef nonnull align 8 dereferenceable(24) %6)
  %10 = getelementptr inbounds nuw i8, ptr %0, i64 16
  %11 = call noundef nonnull align 8 dereferenceable(8) ptr @_ZN4Luau12DenseHashMapIPKNS_7AstExprEPKNS_3DefENS_16DenseHashPointerESt8equal_toIS3_EEixERKS3_(ptr noundef nonnull align 8 dereferenceable(40) %10, ptr noundef nonnull align 8 dereferenceable(8) %5)
  store ptr %9, ptr %11, align 8, !tbaa !20
  call void @llvm.lifetime.end.p0(i64 24, ptr nonnull %6) #26
  ret void
}